; Function Attrs: mustprogress uwtable
define void @_Z23gmx_ana_indexgrps_printPN3gmx10TextWriterEP19gmx_ana_indexgrps_ti(ptr noundef %0, ptr noundef readonly captures(none) %1, i32 noundef %2) local_unnamed_addr #0 personality ptr @__gxx_personality_v0 {
  %4 = alloca %"class.std::__cxx11::basic_string", align 8
  %5 = getelementptr inbounds nuw i8, ptr %1, i64 8
  %6 = load ptr, ptr %5, align 8, !tbaa !85
  %7 = load ptr, ptr %1, align 8, !tbaa !70
  %8 = ptrtoint ptr %6 to i64
  %9 = ptrtoint ptr %7 to i64
  %10 = sub i64 %8, %9
  %11 = icmp sgt i64 %10, 0
  br i1 %11, label %.lr.ph, label %._crit_edge

.lr.ph:                                           ; preds = %3
  %12 = getelementptr inbounds nuw i8, ptr %1, i64 24
  %13 = getelementptr inbounds nuw i8, ptr %4, i64 16
  %14 = getelementptr inbounds nuw i8, ptr %4, i64 8
  br label %15

._crit_edge:                                      ; preds = %_ZNSt7__cxx1112basic_stringIcSt11char_traitsIcESaIcEED2Ev.exit, %3
  ret void

15:                                               ; preds = %.lr.ph, %_ZNSt7__cxx1112basic_stringIcSt11char_traitsIcESaIcEED2Ev.exit
  %.015 = phi i64 [ 0, %.lr.ph ], [ %28, %_ZNSt7__cxx1112basic_stringIcSt11char_traitsIcESaIcEED2Ev.exit ]
  call void @llvm.lifetime.start.p0(i64 32, ptr nonnull %4) #28
  %16 = load ptr, ptr %12, align 8, !tbaa !86
  %17 = getelementptr inbounds nuw %"class.std::__cxx11::basic_string", ptr %16, i64 %.015
  %18 = load ptr, ptr %17, align 8, !tbaa !18
  call void (ptr, ptr, ...) @_ZN3gmx12formatStringB5cxx11EPKcz(ptr dead_on_unwind nonnull writable sret(%"class.std::__cxx11::basic_string") align 8 %4, ptr noundef nonnull @.str.10, i64 noundef %.015, ptr noundef %18)
  invoke void @_ZN3gmx10TextWriter11writeStringERKNSt7__cxx1112basic_stringIcSt11char_traitsIcESaIcEEE(ptr noundef nonnull align 8 dereferenceable(8) %0, ptr noundef nonnull align 8 dereferenceable(32) %4)
          to label %19 unwind label %36

19:                                               ; preds = %15
  %20 = load ptr, ptr %4, align 8, !tbaa !18
  %21 = icmp eq ptr %20, %13
  br i1 %21, label %_ZNKSt7__cxx1112basic_stringIcSt11char_traitsIcESaIcEE11_M_is_localEv.exit.thread.i.i, label %_ZNKSt7__cxx1112basic_stringIcSt11char_traitsIcESaIcEE11_M_is_localEv.exit.i.i

_ZNKSt7__cxx1112basic_stringIcSt11char_traitsIcESaIcEE11_M_is_localEv.exit.thread.i.i: ; preds = %19
  %22 = load i64, ptr %14, align 8, !tbaa !23
  %23 = icmp ult i64 %22, 16
  call void @llvm.assume(i1 %23)
  br label %_ZNSt7__cxx1112basic_stringIcSt11char_traitsIcESaIcEED2Ev.exit

_ZNKSt7__cxx1112basic_stringIcSt11char_traitsIcESaIcEE11_M_is_localEv.exit.i.i: ; preds = %19
  %24 = load i64, ptr %13, align 8, !tbaa !24
  %25 = add i64 %24, 1
  call void @_ZdlPvm(ptr noundef %20, i64 noundef %25) #25
  br label %_ZNSt7__cxx1112basic_stringIcSt11char_traitsIcESaIcEED2Ev.exit

_ZNSt7__cxx1112basic_stringIcSt11char_traitsIcESaIcEED2Ev.exit: ; preds = %_ZNKSt7__cxx1112basic_stringIcSt11char_traitsIcESaIcEE11_M_is_localEv.exit.thread.i.i, %_ZNKSt7__cxx1112basic_stringIcSt11char_traitsIcESaIcEE11_M_is_localEv.exit.i.i
  call void @llvm.lifetime.end.p0(i64 32, ptr nonnull %4) #28
  %26 = load ptr, ptr %1, align 8, !tbaa !70
  %27 = getelementptr inbounds nuw %struct.gmx_ana_index_t, ptr %26, i64 %.015
  call void @_Z18gmx_ana_index_dumpPN3gmx10TextWriterEP15gmx_ana_index_ti(ptr noundef nonnull %0, ptr noundef nonnull %27, i32 noundef %2)
  %28 = add nuw nsw i64 %.015, 1
  %29 = load ptr, ptr %5, align 8, !tbaa !85
  %30 = load ptr, ptr %1, align 8, !tbaa !70
  %31 = ptrtoint ptr %29 to i64
  %32 = ptrtoint ptr %30 to i64
  %33 = sub i64 %31, %32
  %34 = sdiv exact i64 %33, 24
  %35 = icmp slt i64 %28, %34
  br i1 %35, label %15, label %._crit_edge, !llvm.loop !110

36:                                               ; preds = %15
  %37 = landingpad { ptr, i32 }
          cleanup
  %38 = load ptr, ptr %4, align 8, !tbaa !18
  %39 = icmp eq ptr %38, %13
  br i1 %39, label %_ZNKSt7__cxx1112basic_stringIcSt11char_traitsIcESaIcEE11_M_is_localEv.exit.thread.i.i13, label %_ZNKSt7__cxx1112basic_stringIcSt11char_traitsIcESaIcEE11_M_is_localEv.exit.i.i12

_ZNKSt7__cxx1112basic_stringIcSt11char_traitsIcESaIcEE11_M_is_localEv.exit.thread.i.i13: ; preds = %36
  %40 = load i64, ptr %14, align 8, !tbaa !23
  %41 = icmp ult i64 %40, 16
  call void @llvm.assume(i1 %41)
  br label %_ZNSt7__cxx1112basic_stringIcSt11char_traitsIcESaIcEED2Ev.exit14

_ZNKSt7__cxx1112basic_stringIcSt11char_traitsIcESaIcEE11_M_is_localEv.exit.i.i12: ; preds = %36
  %42 = load i64, ptr %13, align 8, !tbaa !24
  %43 = add i64 %42, 1
  call void @_ZdlPvm(ptr noundef %38, i64 noundef %43) #25
  br label %_ZNSt7__cxx1112basic_stringIcSt11char_traitsIcESaIcEED2Ev.exit14

_ZNSt7__cxx1112basic_stringIcSt11char_traitsIcESaIcEED2Ev.exit14: ; preds = %_ZNKSt7__cxx1112basic_stringIcSt11char_traitsIcESaIcEE11_M_is_localEv.exit.thread.i.i13, %_ZNKSt7__cxx1112basic_stringIcSt11char_traitsIcESaIcEE11_M_is_localEv.exit.i.i12
  call void @llvm.lifetime.end.p0(i64 32, ptr nonnull %4) #28
  resume { ptr, i32 } %37
}